; Function Attrs: mustprogress nounwind uwtable
define void @_ZN7glslang14TParseVersions10requireSpvERKNS_10TSourceLocEPKcj(ptr noundef nonnull align 8 dereferenceable(224) %0, ptr noundef nonnull align 8 dereferenceable(24) %1, ptr noundef %2, i32 noundef %3) unnamed_addr #0 align 2 {
  %5 = getelementptr inbounds i8, ptr %0, i64 32
  %6 = load i32, ptr %5, align 8
  %7 = icmp ult i32 %6, %3
  br i1 %7, label %8, label %12

8:                                                ; preds = %4
  %9 = load ptr, ptr %0, align 8
  %10 = getelementptr inbounds i8, ptr %9, i64 344
  %11 = load ptr, ptr %10, align 8
  tail call void (ptr, ptr, ptr, ptr, ptr, ...) %11(ptr noundef nonnull align 8 dereferenceable(224) %0, ptr noundef nonnull align 8 dereferenceable(24) %1, ptr noundef nonnull @.str.270, ptr noundef %2, ptr noundef nonnull @.str.240) #15
  br label %12

12:                                               ; preds = %8, %4
  ret void
}